target datalayout = "e-m:e-p270:32:32-p271:32:32-p272:64:64-i64:64-i128:128-f80:128-n8:16:32:64-S128"
target triple = "x86_64-pc-linux-gnu"

%struct.png_row_info_struct = type { i32, i64, i8, i8, i8, i8 }

; Function Attrs: nounwind uwtable
define void @png_do_bgr(ptr noundef %0, ptr noundef %1) #0 {
  %3 = alloca ptr, align 8
  %4 = alloca ptr, align 8
  %5 = alloca i32, align 4
  %6 = alloca ptr, align 8
  %7 = alloca i32, align 4
  %8 = alloca i8, align 1
  %9 = alloca ptr, align 8
  %10 = alloca i32, align 4
  %11 = alloca i8, align 1
  %12 = alloca ptr, align 8
  %13 = alloca i32, align 4
  %14 = alloca i8, align 1
  %15 = alloca ptr, align 8
  %16 = alloca i32, align 4
  %17 = alloca i8, align 1
  store ptr %0, ptr %3, align 8
  store ptr %1, ptr %4, align 8
  %18 = load ptr, ptr %3, align 8
  %19 = getelementptr inbounds %struct.png_row_info_struct, ptr %18, i32 0, i32 2
  %20 = load i8, ptr %19, align 8
  %21 = zext i8 %20 to i32
  %22 = and i32 %21, 2
  %23 = icmp ne i32 %22, 0
  br i1 %23, label %24, label %179

24:                                               ; preds = %2
  %25 = load ptr, ptr %3, align 8
  %26 = getelementptr inbounds %struct.png_row_info_struct, ptr %25, i32 0, i32 0
  %27 = load i32, ptr %26, align 8
  store i32 %27, ptr %5, align 4
  %28 = load ptr, ptr %3, align 8
  %29 = getelementptr inbounds %struct.png_row_info_struct, ptr %28, i32 0, i32 3
  %30 = load i8, ptr %29, align 1
  %31 = zext i8 %30 to i32
  %32 = icmp eq i32 %31, 8
  br i1 %32, label %33, label %91

33:                                               ; preds = %24
  %34 = load ptr, ptr %3, align 8
  %35 = getelementptr inbounds %struct.png_row_info_struct, ptr %34, i32 0, i32 2
  %36 = load i8, ptr %35, align 8
  %37 = zext i8 %36 to i32
  %38 = icmp eq i32 %37, 2
  br i1 %38, label %39, label %61

39:                                               ; preds = %33
  store i32 0, ptr %7, align 4
  %40 = load ptr, ptr %4, align 8
  store ptr %40, ptr %6, align 8
  br label %41

41:                                               ; preds = %55, %39
  %42 = load i32, ptr %7, align 4
  %43 = load i32, ptr %5, align 4
  %44 = icmp ult i32 %42, %43
  br i1 %44, label %45, label %60

45:                                               ; preds = %41
  %46 = load ptr, ptr %6, align 8
  %47 = load i8, ptr %46, align 1
  store i8 %47, ptr %8, align 1
  %48 = load ptr, ptr %6, align 8
  %49 = getelementptr inbounds i8, ptr %48, i64 2
  %50 = load i8, ptr %49, align 1
  %51 = load ptr, ptr %6, align 8
  store i8 %50, ptr %51, align 1
  %52 = load i8, ptr %8, align 1
  %53 = load ptr, ptr %6, align 8
  %54 = getelementptr inbounds i8, ptr %53, i64 2
  store i8 %52, ptr %54, align 1
  br label %55

55:                                               ; preds = %45
  %56 = load i32, ptr %7, align 4
  %57 = add i32 %56, 1
  store i32 %57, ptr %7, align 4
  %58 = load ptr, ptr %6, align 8
  %59 = getelementptr inbounds i8, ptr %58, i64 3
  store ptr %59, ptr %6, align 8
  br label %41, !llvm.loop !14

60:                                               ; preds = %41
  br label %90

61:                                               ; preds = %33
  %62 = load ptr, ptr %3, align 8
  %63 = getelementptr inbounds %struct.png_row_info_struct, ptr %62, i32 0, i32 2
  %64 = load i8, ptr %63, align 8
  %65 = zext i8 %64 to i32
  %66 = icmp eq i32 %65, 6
  br i1 %66, label %67, label %89

67:                                               ; preds = %61
  store i32 0, ptr %10, align 4
  %68 = load ptr, ptr %4, align 8
  store ptr %68, ptr %9, align 8
  br label %69

69:                                               ; preds = %83, %67
  %70 = load i32, ptr %10, align 4
  %71 = load i32, ptr %5, align 4
  %72 = icmp ult i32 %70, %71
  br i1 %72, label %73, label %88

73:                                               ; preds = %69
  %74 = load ptr, ptr %9, align 8
  %75 = load i8, ptr %74, align 1
  store i8 %75, ptr %11, align 1
  %76 = load ptr, ptr %9, align 8
  %77 = getelementptr inbounds i8, ptr %76, i64 2
  %78 = load i8, ptr %77, align 1
  %79 = load ptr, ptr %9, align 8
  store i8 %78, ptr %79, align 1
  %80 = load i8, ptr %11, align 1
  %81 = load ptr, ptr %9, align 8
  %82 = getelementptr inbounds i8, ptr %81, i64 2
  store i8 %80, ptr %82, align 1
  br label %83

83:                                               ; preds = %73
  %84 = load i32, ptr %10, align 4
  %85 = add i32 %84, 1
  store i32 %85, ptr %10, align 4
  %86 = load ptr, ptr %9, align 8
  %87 = getelementptr inbounds i8, ptr %86, i64 4
  store ptr %87, ptr %9, align 8
  br label %69, !llvm.loop !15

88:                                               ; preds = %69
  br label %89

89:                                               ; preds = %88, %61
  br label %90

90:                                               ; preds = %89, %60
  br label %178

91:                                               ; preds = %24
  %92 = load ptr, ptr %3, align 8
  %93 = getelementptr inbounds %struct.png_row_info_struct, ptr %92, i32 0, i32 3
  %94 = load i8, ptr %93, align 1
  %95 = zext i8 %94 to i32
  %96 = icmp eq i32 %95, 16
  br i1 %96, label %97, label %177

97:                                               ; preds = %91
  %98 = load ptr, ptr %3, align 8
  %99 = getelementptr inbounds %struct.png_row_info_struct, ptr %98, i32 0, i32 2
  %100 = load i8, ptr %99, align 8
  %101 = zext i8 %100 to i32
  %102 = icmp eq i32 %101, 2
  br i1 %102, label %103, label %136

103:                                              ; preds = %97
  store i32 0, ptr %13, align 4
  %104 = load ptr, ptr %4, align 8
  store ptr %104, ptr %12, align 8
  br label %105

105:                                              ; preds = %130, %103
  %106 = load i32, ptr %13, align 4
  %107 = load i32, ptr %5, align 4
  %108 = icmp ult i32 %106, %107
  br i1 %108, label %109, label %135

109:                                              ; preds = %105
  %110 = load ptr, ptr %12, align 8
  %111 = load i8, ptr %110, align 1
  store i8 %111, ptr %14, align 1
  %112 = load ptr, ptr %12, align 8
  %113 = getelementptr inbounds i8, ptr %112, i64 4
  %114 = load i8, ptr %113, align 1
  %115 = load ptr, ptr %12, align 8
  store i8 %114, ptr %115, align 1
  %116 = load i8, ptr %14, align 1
  %117 = load ptr, ptr %12, align 8
  %118 = getelementptr inbounds i8, ptr %117, i64 4
  store i8 %116, ptr %118, align 1
  %119 = load ptr, ptr %12, align 8
  %120 = getelementptr inbounds i8, ptr %119, i64 1
  %121 = load i8, ptr %120, align 1
  store i8 %121, ptr %14, align 1
  %122 = load ptr, ptr %12, align 8
  %123 = getelementptr inbounds i8, ptr %122, i64 5
  %124 = load i8, ptr %123, align 1
  %125 = load ptr, ptr %12, align 8
  %126 = getelementptr inbounds i8, ptr %125, i64 1
  store i8 %124, ptr %126, align 1
  %127 = load i8, ptr %14, align 1
  %128 = load ptr, ptr %12, align 8
  %129 = getelementptr inbounds i8, ptr %128, i64 5
  store i8 %127, ptr %129, align 1
  br label %130

130:                                              ; preds = %109
  %131 = load i32, ptr %13, align 4
  %132 = add i32 %131, 1
  store i32 %132, ptr %13, align 4
  %133 = load ptr, ptr %12, align 8
  %134 = getelementptr inbounds i8, ptr %133, i64 6
  store ptr %134, ptr %12, align 8
  br label %105, !llvm.loop !16

135:                                              ; preds = %105
  br label %176

136:                                              ; preds = %97
  %137 = load ptr, ptr %3, align 8
  %138 = getelementptr inbounds %struct.png_row_info_struct, ptr %137, i32 0, i32 2
  %139 = load i8, ptr %138, align 8
  %140 = zext i8 %139 to i32
  %141 = icmp eq i32 %140, 6
  br i1 %141, label %142, label %175

142:                                              ; preds = %136
  store i32 0, ptr %16, align 4
  %143 = load ptr, ptr %4, align 8
  store ptr %143, ptr %15, align 8
  br label %144

144:                                              ; preds = %169, %142
  %145 = load i32, ptr %16, align 4
  %146 = load i32, ptr %5, align 4
  %147 = icmp ult i32 %145, %146
  br i1 %147, label %148, label %174

148:                                              ; preds = %144
  %149 = load ptr, ptr %15, align 8
  %150 = load i8, ptr %149, align 1
  store i8 %150, ptr %17, align 1
  %151 = load ptr, ptr %15, align 8
  %152 = getelementptr inbounds i8, ptr %151, i64 4
  %153 = load i8, ptr %152, align 1
  %154 = load ptr, ptr %15, align 8
  store i8 %153, ptr %154, align 1
  %155 = load i8, ptr %17, align 1
  %156 = load ptr, ptr %15, align 8
  %157 = getelementptr inbounds i8, ptr %156, i64 4
  store i8 %155, ptr %157, align 1
  %158 = load ptr, ptr %15, align 8
  %159 = getelementptr inbounds i8, ptr %158, i64 1
  %160 = load i8, ptr %159, align 1
  store i8 %160, ptr %17, align 1
  %161 = load ptr, ptr %15, align 8
  %162 = getelementptr inbounds i8, ptr %161, i64 5
  %163 = load i8, ptr %162, align 1
  %164 = load ptr, ptr %15, align 8
  %165 = getelementptr inbounds i8, ptr %164, i64 1
  store i8 %163, ptr %165, align 1
  %166 = load i8, ptr %17, align 1
  %167 = load ptr, ptr %15, align 8
  %168 = getelementptr inbounds i8, ptr %167, i64 5
  store i8 %166, ptr %168, align 1
  br label %169

169:                                              ; preds = %148
  %170 = load i32, ptr %16, align 4
  %171 = add i32 %170, 1
  store i32 %171, ptr %16, align 4
  %172 = load ptr, ptr %15, align 8
  %173 = getelementptr inbounds i8, ptr %172, i64 8
  store ptr %173, ptr %15, align 8
  br label %144, !llvm.loop !17

174:                                              ; preds = %144
  br label %175

175:                                              ; preds = %174, %136
  br label %176

176:                                              ; preds = %175, %135
  br label %177

177:                                              ; preds = %176, %91
  br label %178

178:                                              ; preds = %177, %90
  br label %179

179:                                              ; preds = %178, %2
  ret void
}