; Function Attrs: nofree norecurse nosync nounwind memory(readwrite, inaccessiblemem: none) uwtable
define void @png_do_bgr(ptr nocapture noundef readonly %0, ptr nocapture noundef %1) local_unnamed_addr #4 {
  %3 = getelementptr inbounds i8, ptr %0, i64 16
  %4 = load i8, ptr %3, align 8
  %5 = and i8 %4, 2
  %.not = icmp eq i8 %5, 0
  br i1 %.not, label %.loopexit, label %6

6:                                                ; preds = %2
  %7 = load i32, ptr %0, align 8
  %8 = getelementptr inbounds i8, ptr %0, i64 17
  %9 = load i8, ptr %8, align 1
  switch i8 %9, label %.loopexit [
    i8 8, label %10
    i8 16, label %21
  ]

10:                                               ; preds = %6
  switch i8 %4, label %.loopexit [
    i8 2, label %.preheader
    i8 6, label %.preheader66
  ]

.preheader66:                                     ; preds = %10
  %.not85 = icmp eq i32 %7, 0
  br i1 %.not85, label %.loopexit, label %.lr.ph79

.preheader:                                       ; preds = %10
  %.not86 = icmp eq i32 %7, 0
  br i1 %.not86, label %.loopexit, label %.lr.ph82

.lr.ph82:                                         ; preds = %.preheader, %.lr.ph82
  %.081 = phi ptr [ %15, %.lr.ph82 ], [ %1, %.preheader ]
  %.05980 = phi i32 [ %14, %.lr.ph82 ], [ 0, %.preheader ]
  %11 = load i8, ptr %.081, align 1
  %12 = getelementptr inbounds i8, ptr %.081, i64 2
  %13 = load i8, ptr %12, align 1
  store i8 %13, ptr %.081, align 1
  store i8 %11, ptr %12, align 1
  %14 = add nuw i32 %.05980, 1
  %15 = getelementptr inbounds i8, ptr %.081, i64 3
  %exitcond92.not = icmp eq i32 %14, %7
  br i1 %exitcond92.not, label %.loopexit, label %.lr.ph82, !llvm.loop !17

.lr.ph79:                                         ; preds = %.preheader66, %.lr.ph79
  %.06278 = phi ptr [ %20, %.lr.ph79 ], [ %1, %.preheader66 ]
  %.06377 = phi i32 [ %19, %.lr.ph79 ], [ 0, %.preheader66 ]
  %16 = load i8, ptr %.06278, align 1
  %17 = getelementptr inbounds i8, ptr %.06278, i64 2
  %18 = load i8, ptr %17, align 1
  store i8 %18, ptr %.06278, align 1
  store i8 %16, ptr %17, align 1
  %19 = add nuw i32 %.06377, 1
  %20 = getelementptr inbounds i8, ptr %.06278, i64 4
  %exitcond91.not = icmp eq i32 %19, %7
  br i1 %exitcond91.not, label %.loopexit, label %.lr.ph79, !llvm.loop !18

21:                                               ; preds = %6
  switch i8 %4, label %.loopexit [
    i8 2, label %.preheader68
    i8 6, label %.preheader70
  ]

.preheader70:                                     ; preds = %21
  %.not83 = icmp eq i32 %7, 0
  br i1 %.not83, label %.loopexit, label %.lr.ph

.preheader68:                                     ; preds = %21
  %.not84 = icmp eq i32 %7, 0
  br i1 %.not84, label %.loopexit, label %.lr.ph76

.lr.ph76:                                         ; preds = %.preheader68, %.lr.ph76
  %.06075 = phi i32 [ %29, %.lr.ph76 ], [ 0, %.preheader68 ]
  %.06174 = phi ptr [ %30, %.lr.ph76 ], [ %1, %.preheader68 ]
  %22 = load i8, ptr %.06174, align 1
  %23 = getelementptr inbounds i8, ptr %.06174, i64 4
  %24 = load i8, ptr %23, align 1
  store i8 %24, ptr %.06174, align 1
  store i8 %22, ptr %23, align 1
  %25 = getelementptr inbounds i8, ptr %.06174, i64 1
  %26 = load i8, ptr %25, align 1
  %27 = getelementptr inbounds i8, ptr %.06174, i64 5
  %28 = load i8, ptr %27, align 1
  store i8 %28, ptr %25, align 1
  store i8 %26, ptr %27, align 1
  %29 = add nuw i32 %.06075, 1
  %30 = getelementptr inbounds i8, ptr %.06174, i64 6
  %exitcond90.not = icmp eq i32 %29, %7
  br i1 %exitcond90.not, label %.loopexit, label %.lr.ph76, !llvm.loop !19

.lr.ph:                                           ; preds = %.preheader70, %.lr.ph
  %.05773 = phi i32 [ %38, %.lr.ph ], [ 0, %.preheader70 ]
  %.05872 = phi ptr [ %39, %.lr.ph ], [ %1, %.preheader70 ]
  %31 = load i8, ptr %.05872, align 1
  %32 = getelementptr inbounds i8, ptr %.05872, i64 4
  %33 = load i8, ptr %32, align 1
  store i8 %33, ptr %.05872, align 1
  store i8 %31, ptr %32, align 1
  %34 = getelementptr inbounds i8, ptr %.05872, i64 1
  %35 = load i8, ptr %34, align 1
  %36 = getelementptr inbounds i8, ptr %.05872, i64 5
  %37 = load i8, ptr %36, align 1
  store i8 %37, ptr %34, align 1
  store i8 %35, ptr %36, align 1
  %38 = add nuw i32 %.05773, 1
  %39 = getelementptr inbounds i8, ptr %.05872, i64 8
  %exitcond.not = icmp eq i32 %38, %7
  br i1 %exitcond.not, label %.loopexit, label %.lr.ph, !llvm.loop !20

.loopexit:                                        ; preds = %.lr.ph, %.lr.ph76, %.lr.ph79, %.lr.ph82, %.preheader70, %.preheader68, %.preheader66, %.preheader, %21, %6, %10, %2
  ret void
}